target datalayout = "e-m:e-p270:32:32-p271:32:32-p272:64:64-i64:64-i128:128-f80:128-n8:16:32:64-S128"
target triple = "x86_64-pc-linux-gnu"

%struct._xmlNode = type { ptr, i32, ptr, ptr, ptr, ptr, ptr, ptr, ptr, ptr, ptr, ptr, ptr, ptr, i16, i16 }
%struct._xmlNs = type { ptr, i32, ptr, ptr, ptr, ptr }
%struct._xmlAttr = type { ptr, i32, ptr, ptr, ptr, ptr, ptr, ptr, ptr, ptr, i32, ptr }

; Function Attrs: nounwind uwtable
define hidden void @php_dom_reconcile_attribute_namespace_after_insertion(ptr noundef %0) #0 {
  %2 = alloca ptr, align 8
  %3 = alloca ptr, align 8
  %4 = alloca ptr, align 8
  store ptr %0, ptr %2, align 8
  %5 = load ptr, ptr %2, align 8
  %6 = icmp ne ptr %5, null
  call void @llvm.assume(i1 %6)
  %7 = load ptr, ptr %2, align 8
  %8 = getelementptr inbounds %struct._xmlAttr, ptr %7, i32 0, i32 9
  %9 = load ptr, ptr %8, align 8
  %10 = icmp ne ptr %9, null
  br i1 %10, label %11, label %57

11:                                               ; preds = %1
  %12 = load ptr, ptr %2, align 8
  %13 = getelementptr inbounds %struct._xmlAttr, ptr %12, i32 0, i32 5
  %14 = load ptr, ptr %13, align 8
  store ptr %14, ptr %3, align 8
  %15 = load ptr, ptr %3, align 8
  %16 = getelementptr inbounds %struct._xmlNode, ptr %15, i32 0, i32 8
  %17 = load ptr, ptr %16, align 8
  %18 = load ptr, ptr %3, align 8
  %19 = load ptr, ptr %2, align 8
  %20 = getelementptr inbounds %struct._xmlAttr, ptr %19, i32 0, i32 9
  %21 = load ptr, ptr %20, align 8
  %22 = getelementptr inbounds %struct._xmlNs, ptr %21, i32 0, i32 3
  %23 = load ptr, ptr %22, align 8
  %24 = call ptr @xmlSearchNs(ptr noundef %17, ptr noundef %18, ptr noundef %23)
  store ptr %24, ptr %4, align 8
  %25 = load ptr, ptr %4, align 8
  %26 = icmp ne ptr %25, null
  br i1 %26, label %27, label %42

27:                                               ; preds = %11
  %28 = load ptr, ptr %4, align 8
  %29 = getelementptr inbounds %struct._xmlNs, ptr %28, i32 0, i32 2
  %30 = load ptr, ptr %29, align 8
  %31 = load ptr, ptr %2, align 8
  %32 = getelementptr inbounds %struct._xmlAttr, ptr %31, i32 0, i32 9
  %33 = load ptr, ptr %32, align 8
  %34 = getelementptr inbounds %struct._xmlNs, ptr %33, i32 0, i32 2
  %35 = load ptr, ptr %34, align 8
  %36 = call i32 @xmlStrEqual(ptr noundef %30, ptr noundef %35)
  %37 = icmp ne i32 %36, 0
  br i1 %37, label %38, label %42

38:                                               ; preds = %27
  %39 = load ptr, ptr %4, align 8
  %40 = load ptr, ptr %2, align 8
  %41 = getelementptr inbounds %struct._xmlAttr, ptr %40, i32 0, i32 9
  store ptr %39, ptr %41, align 8
  br label %56

42:                                               ; preds = %27, %11
  %43 = load ptr, ptr %2, align 8
  %44 = getelementptr inbounds %struct._xmlAttr, ptr %43, i32 0, i32 9
  %45 = load ptr, ptr %44, align 8
  %46 = getelementptr inbounds %struct._xmlNs, ptr %45, i32 0, i32 3
  %47 = load ptr, ptr %46, align 8
  %48 = icmp ne ptr %47, null
  br i1 %48, label %49, label %55

49:                                               ; preds = %42
  %50 = load ptr, ptr %3, align 8
  %51 = getelementptr inbounds %struct._xmlNode, ptr %50, i32 0, i32 8
  %52 = load ptr, ptr %51, align 8
  %53 = load ptr, ptr %3, align 8
  %54 = call i32 @xmlReconciliateNs(ptr noundef %52, ptr noundef %53)
  br label %55

55:                                               ; preds = %49, %42
  br label %56

56:                                               ; preds = %55, %38
  br label %57

57:                                               ; preds = %56, %1
  ret void
}