; Function Attrs: nounwind uwtable
define hidden void @php_dom_reconcile_attribute_namespace_after_insertion(ptr noundef %0) local_unnamed_addr #1 {
  %2 = icmp ne ptr %0, null
  tail call void @llvm.assume(i1 %2)
  %3 = getelementptr inbounds i8, ptr %0, i64 72
  %4 = load ptr, ptr %3, align 8
  %.not = icmp eq ptr %4, null
  br i1 %.not, label %28, label %5

5:                                                ; preds = %1
  %6 = getelementptr inbounds i8, ptr %0, i64 40
  %7 = load ptr, ptr %6, align 8
  %8 = getelementptr inbounds i8, ptr %7, i64 64
  %9 = load ptr, ptr %8, align 8
  %10 = getelementptr inbounds i8, ptr %4, i64 24
  %11 = load ptr, ptr %10, align 8
  %12 = tail call ptr @xmlSearchNs(ptr noundef %9, ptr noundef %7, ptr noundef %11) #16
  %.not15 = icmp eq ptr %12, null
  br i1 %.not15, label %21, label %13

13:                                               ; preds = %5
  %14 = getelementptr inbounds i8, ptr %12, i64 16
  %15 = load ptr, ptr %14, align 8
  %16 = load ptr, ptr %3, align 8
  %17 = getelementptr inbounds i8, ptr %16, i64 16
  %18 = load ptr, ptr %17, align 8
  %19 = tail call i32 @xmlStrEqual(ptr noundef %15, ptr noundef %18) #16
  %.not16 = icmp eq i32 %19, 0
  br i1 %.not16, label %21, label %20

20:                                               ; preds = %13
  store ptr %12, ptr %3, align 8
  br label %28

21:                                               ; preds = %13, %5
  %22 = load ptr, ptr %3, align 8
  %23 = getelementptr inbounds i8, ptr %22, i64 24
  %24 = load ptr, ptr %23, align 8
  %.not17 = icmp eq ptr %24, null
  br i1 %.not17, label %28, label %25

25:                                               ; preds = %21
  %26 = load ptr, ptr %8, align 8
  %27 = tail call i32 @xmlReconciliateNs(ptr noundef %26, ptr noundef nonnull %7) #16
  br label %28

28:                                               ; preds = %20, %25, %21, %1
  ret void
}